; Function Attrs: inlinehint nounwind uwtable
define hidden noalias ptr @mi_malloc(i64 noundef %0) #0 {
  %2 = tail call align 8 ptr @llvm.threadlocal.address.p0(ptr align 8 @_mi_heap_default)
  %3 = load ptr, ptr %2, align 8, !tbaa !3
  %4 = icmp ult i64 %0, 1025
  br i1 %4, label %5, label %21, !prof !8

5:                                                ; preds = %1
  %6 = add nuw nsw i64 %0, 7
  %7 = lshr i64 %6, 3
  %8 = getelementptr inbounds nuw i8, ptr %3, i64 232
  %9 = getelementptr inbounds nuw [129 x ptr], ptr %8, i64 0, i64 %7
  %10 = load ptr, ptr %9, align 8, !tbaa !9
  %11 = getelementptr inbounds nuw i8, ptr %10, i64 8
  %12 = load ptr, ptr %11, align 8, !tbaa !11
  %13 = icmp eq ptr %12, null
  br i1 %13, label %14, label %16, !prof !17

14:                                               ; preds = %5
  %15 = tail call noalias ptr @_mi_malloc_generic(ptr noundef nonnull %3, i64 noundef %0, i1 noundef zeroext false, i64 noundef 0) #19
  br label %mi_heap_malloc.exit

16:                                               ; preds = %5
  %.val.i.i.i.i.i = load i64, ptr %12, align 8, !tbaa !18
  %17 = inttoptr i64 %.val.i.i.i.i.i to ptr
  store ptr %17, ptr %11, align 8, !tbaa !11
  %18 = getelementptr inbounds nuw i8, ptr %10, i64 24
  %19 = load i16, ptr %18, align 8, !tbaa !20
  %20 = add i16 %19, 1
  store i16 %20, ptr %18, align 8, !tbaa !20
  br label %mi_heap_malloc.exit

21:                                               ; preds = %1
  %22 = tail call noalias ptr @_mi_malloc_generic(ptr noundef %3, i64 noundef %0, i1 noundef zeroext false, i64 noundef 0) #19
  br label %mi_heap_malloc.exit

mi_heap_malloc.exit:                              ; preds = %14, %16, %21
  %.0.i.i.i = phi ptr [ %22, %21 ], [ %15, %14 ], [ %12, %16 ]
  ret ptr %.0.i.i.i
}